target datalayout = "e-m:e-p270:32:32-p271:32:32-p272:64:64-i64:64-i128:128-f80:128-n8:16:32:64-S128"
target triple = "x86_64-pc-linux-gnu"

%struct.H5FD_splitter_fapl_t = type { i64, i64, [4097 x i8], [4097 x i8], i8 }
%struct.H5FD_splitter_t = type { %struct.H5FD_t, i32, %struct.H5FD_splitter_fapl_t, ptr, ptr, ptr }
%struct.H5FD_t = type { i64, ptr, i64, i32, i64, i64, i64, i64, i64, i8 }

@H5FD_init_g = external global i8, align 1
@H5_libterm_g = external global i8, align 1
@.str = private unnamed_addr constant [106 x i8] c"generated/home/dtcxzyw/WorkSpace/Projects/compilers/llvm-opt-benchmark/bench/hdf5/hdf5/src/H5FDsplitter.c\00", align 1
@H5E_VFL_g = external global i64, align 8
@H5E_CANTINIT_g = external global i64, align 8
@.str.47 = private unnamed_addr constant [32 x i8] c"unable to allocate for R/W file\00", align 1
@__func__.H5FD__splitter_alloc = private unnamed_addr constant [21 x i8] c"H5FD__splitter_alloc\00", align 1
@.str.48 = private unnamed_addr constant [29 x i8] c"unable to alloc for W/O file\00", align 1

; Function Attrs: nounwind uwtable
define internal i64 @H5FD__splitter_alloc(ptr noundef %0, i32 noundef %1, i64 noundef %2, i64 noundef %3) #0 {
  %5 = alloca ptr, align 8
  %6 = alloca i32, align 4
  %7 = alloca i64, align 8
  %8 = alloca i64, align 8
  %9 = alloca ptr, align 8
  %10 = alloca i64, align 8
  %11 = alloca i8, align 1
  store ptr %0, ptr %5, align 8, !tbaa !38
  store i32 %1, ptr %6, align 4, !tbaa !3
  store i64 %2, ptr %7, align 8, !tbaa !11
  store i64 %3, ptr %8, align 8, !tbaa !11
  call void @llvm.lifetime.start.p0(i64 8, ptr %9) #10
  %12 = load ptr, ptr %5, align 8, !tbaa !38
  store ptr %12, ptr %9, align 8, !tbaa !40
  call void @llvm.lifetime.start.p0(i64 8, ptr %10) #10
  store i64 -1, ptr %10, align 8, !tbaa !11
  call void @llvm.lifetime.start.p0(i64 1, ptr %11) #10
  store i8 0, ptr %11, align 1, !tbaa !7
  %13 = load i8, ptr @H5FD_init_g, align 1, !tbaa !7, !range !9, !noundef !10
  %14 = trunc i8 %13 to i1
  br i1 %14, label %19, label %15

15:                                               ; preds = %4
  %16 = load i8, ptr @H5_libterm_g, align 1, !tbaa !7, !range !9, !noundef !10
  %17 = trunc i8 %16 to i1
  %18 = xor i1 %17, true
  br label %19

19:                                               ; preds = %15, %4
  %20 = phi i1 [ true, %4 ], [ %18, %15 ]
  %21 = xor i1 %20, true
  %22 = xor i1 %21, true
  %23 = zext i1 %22 to i32
  %24 = sext i32 %23 to i64
  %25 = call i64 @llvm.expect.i64(i64 %24, i64 1)
  %26 = icmp ne i64 %25, 0
  br i1 %26, label %27, label %96

27:                                               ; preds = %19
  %28 = load ptr, ptr %9, align 8, !tbaa !40
  %29 = getelementptr inbounds nuw %struct.H5FD_splitter_t, ptr %28, i32 0, i32 3
  %30 = load ptr, ptr %29, align 8, !tbaa !42
  %31 = load i32, ptr %6, align 4, !tbaa !3
  %32 = load i64, ptr %7, align 8, !tbaa !11
  %33 = load i64, ptr %8, align 8, !tbaa !11
  %34 = call i64 @H5FDalloc(ptr noundef %30, i32 noundef %31, i64 noundef %32, i64 noundef %33)
  store i64 %34, ptr %10, align 8, !tbaa !11
  %35 = icmp eq i64 %34, -1
  br i1 %35, label %36, label %55

36:                                               ; preds = %27
  br label %37

37:                                               ; preds = %36
  br label %38

38:                                               ; preds = %37
  br label %39

39:                                               ; preds = %38
  %40 = load i64, ptr @H5E_VFL_g, align 8, !tbaa !11
  %41 = load i64, ptr @H5E_CANTINIT_g, align 8, !tbaa !11
  %42 = call i32 (ptr, ptr, i32, i64, i64, ptr, ...) @H5E_printf_stack(ptr noundef @.str, ptr noundef @__func__.H5FD__splitter_alloc, i32 noundef 1384, i64 noundef %40, i64 noundef %41, ptr noundef @.str.47)
  br label %43

43:                                               ; preds = %39
  br label %44

44:                                               ; preds = %43
  store i8 1, ptr %11, align 1, !tbaa !7
  %45 = load i8, ptr %11, align 1, !tbaa !7, !range !9, !noundef !10
  %46 = trunc i8 %45 to i1
  %47 = zext i1 %46 to i8
  store i8 %47, ptr %11, align 1, !tbaa !7
  br label %48

48:                                               ; preds = %44
  br label %49

49:                                               ; preds = %48
  br label %50

50:                                               ; preds = %49
  store i64 -1, ptr %10, align 8, !tbaa !11
  br label %95

51:                                               ; No predecessors!
  br label %52

52:                                               ; preds = %51
  br label %53

53:                                               ; preds = %52
  br label %54

54:                                               ; preds = %53
  br label %55

55:                                               ; preds = %54, %27
  %56 = load ptr, ptr %9, align 8, !tbaa !40
  %57 = getelementptr inbounds nuw %struct.H5FD_splitter_t, ptr %56, i32 0, i32 4
  %58 = load ptr, ptr %57, align 8, !tbaa !52
  %59 = load i32, ptr %6, align 4, !tbaa !3
  %60 = load i64, ptr %7, align 8, !tbaa !11
  %61 = load i64, ptr %8, align 8, !tbaa !11
  %62 = call i64 @H5FDalloc(ptr noundef %58, i32 noundef %59, i64 noundef %60, i64 noundef %61)
  %63 = icmp eq i64 %62, -1
  br i1 %63, label %64, label %94

64:                                               ; preds = %55
  %65 = load ptr, ptr %9, align 8, !tbaa !40
  %66 = call i32 @H5FD__splitter_log_error(ptr noundef %65, ptr noundef @__func__.H5FD__splitter_alloc, ptr noundef @.str.48)
  %67 = load ptr, ptr %9, align 8, !tbaa !40
  %68 = getelementptr inbounds nuw %struct.H5FD_splitter_t, ptr %67, i32 0, i32 2
  %69 = getelementptr inbounds nuw %struct.H5FD_splitter_fapl_t, ptr %68, i32 0, i32 4
  %70 = load i8, ptr %69, align 2, !tbaa !50, !range !9, !noundef !10
  %71 = trunc i8 %70 to i1
  %72 = zext i1 %71 to i32
  %73 = icmp eq i32 0, %72
  br i1 %73, label %74, label %93

74:                                               ; preds = %64
  br label %75

75:                                               ; preds = %74
  br label %76

76:                                               ; preds = %75
  br label %77

77:                                               ; preds = %76
  %78 = load i64, ptr @H5E_VFL_g, align 8, !tbaa !11
  %79 = load i64, ptr @H5E_CANTINIT_g, align 8, !tbaa !11
  %80 = call i32 (ptr, ptr, i32, i64, i64, ptr, ...) @H5E_printf_stack(ptr noundef @.str, ptr noundef @__func__.H5FD__splitter_alloc, i32 noundef 1388, i64 noundef %78, i64 noundef %79, ptr noundef @.str.48)
  br label %81

81:                                               ; preds = %77
  br label %82

82:                                               ; preds = %81
  store i8 1, ptr %11, align 1, !tbaa !7
  %83 = load i8, ptr %11, align 1, !tbaa !7, !range !9, !noundef !10
  %84 = trunc i8 %83 to i1
  %85 = zext i1 %84 to i8
  store i8 %85, ptr %11, align 1, !tbaa !7
  br label %86

86:                                               ; preds = %82
  br label %87

87:                                               ; preds = %86
  br label %88

88:                                               ; preds = %87
  store i64 -1, ptr %10, align 8, !tbaa !11
  br label %95

89:                                               ; No predecessors!
  br label %90

90:                                               ; preds = %89
  br label %91

91:                                               ; preds = %90
  br label %92

92:                                               ; preds = %91
  br label %93

93:                                               ; preds = %92, %64
  br label %94

94:                                               ; preds = %93, %55
  br label %95

95:                                               ; preds = %94, %88, %50
  br label %96

96:                                               ; preds = %95, %19
  %97 = load i64, ptr %10, align 8, !tbaa !11
  call void @llvm.lifetime.end.p0(i64 1, ptr %11) #10
  call void @llvm.lifetime.end.p0(i64 8, ptr %10) #10
  call void @llvm.lifetime.end.p0(i64 8, ptr %9) #10
  ret i64 %97
}