; Function Attrs: nounwind uwtable
define internal i64 @H5FD__splitter_alloc(ptr noundef readonly captures(none) %0, i32 noundef %1, i64 noundef %2, i64 noundef %3) #0 {
  %5 = load i8, ptr @H5FD_init_g, align 1, !tbaa !3, !range !7, !noundef !8
  %6 = trunc nuw i8 %5 to i1
  %7 = load i8, ptr @H5_libterm_g, align 1, !range !7
  %8 = trunc nuw i8 %7 to i1
  %9 = xor i1 %8, true
  %10 = select i1 %6, i1 true, i1 %9
  br i1 %10, label %11, label %33, !prof !9

11:                                               ; preds = %4
  %12 = getelementptr inbounds nuw i8, ptr %0, i64 8304
  %13 = load ptr, ptr %12, align 8, !tbaa !33
  %14 = tail call i64 @H5FDalloc(ptr noundef %13, i32 noundef %1, i64 noundef %2, i64 noundef %3) #12
  %15 = icmp eq i64 %14, -1
  br i1 %15, label %16, label %20

16:                                               ; preds = %11
  %17 = load i64, ptr @H5E_VFL_g, align 8, !tbaa !10
  %18 = load i64, ptr @H5E_CANTINIT_g, align 8, !tbaa !10
  %19 = tail call i32 (ptr, ptr, i32, i64, i64, ptr, ...) @H5E_printf_stack(ptr noundef nonnull @.str, ptr noundef nonnull @__func__.H5FD__splitter_alloc, i32 noundef 1384, i64 noundef %17, i64 noundef %18, ptr noundef nonnull @.str.47) #12
  br label %33

20:                                               ; preds = %11
  %21 = getelementptr inbounds nuw i8, ptr %0, i64 8312
  %22 = load ptr, ptr %21, align 8, !tbaa !43
  %23 = tail call i64 @H5FDalloc(ptr noundef %22, i32 noundef %1, i64 noundef %2, i64 noundef %3) #12
  %24 = icmp eq i64 %23, -1
  br i1 %24, label %25, label %33

25:                                               ; preds = %20
  tail call fastcc void @H5FD__splitter_log_error(ptr noundef nonnull %0, ptr noundef nonnull @__func__.H5FD__splitter_alloc, ptr noundef nonnull @.str.48)
  %26 = getelementptr inbounds nuw i8, ptr %0, i64 8298
  %27 = load i8, ptr %26, align 2, !tbaa !39, !range !7, !noundef !8
  %28 = icmp eq i8 %27, 0
  br i1 %28, label %29, label %33

29:                                               ; preds = %25
  %30 = load i64, ptr @H5E_VFL_g, align 8, !tbaa !10
  %31 = load i64, ptr @H5E_CANTINIT_g, align 8, !tbaa !10
  %32 = tail call i32 (ptr, ptr, i32, i64, i64, ptr, ...) @H5E_printf_stack(ptr noundef nonnull @.str, ptr noundef nonnull @__func__.H5FD__splitter_alloc, i32 noundef 1388, i64 noundef %30, i64 noundef %31, ptr noundef nonnull @.str.48) #12
  br label %33

33:                                               ; preds = %16, %29, %25, %20, %4
  %.0 = phi i64 [ -1, %16 ], [ -1, %29 ], [ %14, %25 ], [ %14, %20 ], [ -1, %4 ]
  ret i64 %.0
}